; ModuleID = '57/2669.c'
source_filename = "57/2669.c"
target datalayout = "e-m:e-p270:32:32-p271:32:32-p272:64:64-i64:64-f80:128-n8:16:32:64-S128"
target triple = "x86_64-pc-linux-gnu"

@.str = private unnamed_addr constant [3 x i8] c"%d\00", align 1
@.str.1 = private unnamed_addr constant [3 x i8] c"%s\00", align 1
@.str.2 = private unnamed_addr constant [3 x i8] c"ly\00", align 1
@.str.3 = private unnamed_addr constant [3 x i8] c"er\00", align 1
@.str.4 = private unnamed_addr constant [4 x i8] c"ing\00", align 1
@.str.5 = private unnamed_addr constant [3 x i8] c"%c\00", align 1
@.str.6 = private unnamed_addr constant [2 x i8] c"\0A\00", align 1

; Function Attrs: noinline nounwind uwtable
define dso_local i32 @main() #0 {
  %1 = alloca i32, align 4
  %2 = alloca i32, align 4
  %3 = alloca i32, align 4
  %4 = alloca i32, align 4
  %5 = alloca [100 x i8], align 16
  store i32 0, i32* %1, align 4
  %6 = call i32 (i8*, ...) @__isoc99_scanf(i8* getelementptr inbounds ([3 x i8], [3 x i8]* @.str, i64 0, i64 0), i32* %2)
  br label %7

7:                                                ; preds = %64, %0
  %8 = load i32, i32* %2, align 4
  %9 = add nsw i32 %8, -1
  store i32 %9, i32* %2, align 4
  %10 = icmp ne i32 %8, 0
  br i1 %10, label %11, label %66

11:                                               ; preds = %7
  %12 = getelementptr inbounds [100 x i8], [100 x i8]* %5, i64 0, i64 0
  %13 = call i32 (i8*, ...) @__isoc99_scanf(i8* getelementptr inbounds ([3 x i8], [3 x i8]* @.str.1, i64 0, i64 0), i8* %12)
  %14 = getelementptr inbounds [100 x i8], [100 x i8]* %5, i64 0, i64 0
  %15 = call i64 @strlen(i8* %14) #3
  %16 = trunc i64 %15 to i32
  store i32 %16, i32* %3, align 4
  %17 = getelementptr inbounds [100 x i8], [100 x i8]* %5, i64 0, i64 0
  %18 = load i32, i32* %3, align 4
  %19 = sext i32 %18 to i64
  %20 = getelementptr inbounds i8, i8* %17, i64 %19
  %21 = getelementptr inbounds i8, i8* %20, i64 -2
  %22 = call i32 @strcmp(i8* %21, i8* getelementptr inbounds ([3 x i8], [3 x i8]* @.str.2, i64 0, i64 0)) #3
  %23 = icmp eq i32 %22, 0
  br i1 %23, label %24, label %27

24:                                               ; preds = %11
  %25 = load i32, i32* %3, align 4
  %26 = sub nsw i32 %25, 2
  store i32 %26, i32* %3, align 4
  br label %27

27:                                               ; preds = %24, %11
  %28 = getelementptr inbounds [100 x i8], [100 x i8]* %5, i64 0, i64 0
  %29 = load i32, i32* %3, align 4
  %30 = sext i32 %29 to i64
  %31 = getelementptr inbounds i8, i8* %28, i64 %30
  %32 = getelementptr inbounds i8, i8* %31, i64 -2
  %33 = call i32 @strcmp(i8* %32, i8* getelementptr inbounds ([3 x i8], [3 x i8]* @.str.3, i64 0, i64 0)) #3
  %34 = icmp eq i32 %33, 0
  br i1 %34, label %35, label %38

35:                                               ; preds = %27
  %36 = load i32, i32* %3, align 4
  %37 = sub nsw i32 %36, 2
  store i32 %37, i32* %3, align 4
  br label %38

38:                                               ; preds = %35, %27
  %39 = getelementptr inbounds [100 x i8], [100 x i8]* %5, i64 0, i64 0
  %40 = load i32, i32* %3, align 4
  %41 = sext i32 %40 to i64
  %42 = getelementptr inbounds i8, i8* %39, i64 %41
  %43 = getelementptr inbounds i8, i8* %42, i64 -3
  %44 = call i32 @strcmp(i8* %43, i8* getelementptr inbounds ([4 x i8], [4 x i8]* @.str.4, i64 0, i64 0)) #3
  %45 = icmp eq i32 %44, 0
  br i1 %45, label %46, label %49

46:                                               ; preds = %38
  %47 = load i32, i32* %3, align 4
  %48 = sub nsw i32 %47, 3
  store i32 %48, i32* %3, align 4
  br label %49

49:                                               ; preds = %46, %38
  store i32 0, i32* %4, align 4
  br label %50

50:                                               ; preds = %61, %49
  %51 = load i32, i32* %4, align 4
  %52 = load i32, i32* %3, align 4
  %53 = icmp slt i32 %51, %52
  br i1 %53, label %54, label %64

54:                                               ; preds = %50
  %55 = load i32, i32* %4, align 4
  %56 = sext i32 %55 to i64
  %57 = getelementptr inbounds [100 x i8], [100 x i8]* %5, i64 0, i64 %56
  %58 = load i8, i8* %57, align 1
  %59 = sext i8 %58 to i32
  %60 = call i32 (i8*, ...) @printf(i8* getelementptr inbounds ([3 x i8], [3 x i8]* @.str.5, i64 0, i64 0), i32 %59)
  br label %61

61:                                               ; preds = %54
  %62 = load i32, i32* %4, align 4
  %63 = add nsw i32 %62, 1
  store i32 %63, i32* %4, align 4
  br label %50

64:                                               ; preds = %50
  %65 = call i32 (i8*, ...) @printf(i8* getelementptr inbounds ([2 x i8], [2 x i8]* @.str.6, i64 0, i64 0))
  br label %7

66:                                               ; preds = %7
  ret i32 0
}

declare dso_local i32 @__isoc99_scanf(i8*, ...) #1

; Function Attrs: nounwind readonly
declare dso_local i64 @strlen(i8*) #2

; Function Attrs: nounwind readonly
declare dso_local i32 @strcmp(i8*, i8*) #2

declare dso_local i32 @printf(i8*, ...) #1


!llvm.module.flags = !{!0}
!llvm.ident = !{!1}

!0 = !{i32 1, !"wchar_size", i32 4}
!1 = !{!"clang version 10.0.0-4ubuntu1 "}
